(dp1
S'symchi'
p2
(S'integer'
S'symchi'
tp3
sS'densty'
p4
(S'real(dp), pointer'
S'densty(:,:)'
tp5
sS'slabwsrad'
p6
(S'real(dp)'
S'slabwsrad'
tp7
sS'irdbsreso'
p8
(S'integer'
S'irdbsreso'
tp9
sS'toldff'
p10
(S'real(dp)'
S'toldff'
tp11
sS'exchn2n3d'
p12
(S'integer'
S'exchn2n3d'
tp13
sS'nstep'
p14
(S'integer'
S'nstep'
tp15
sS'wvl_nprccg'
p16
(S'integer'
S'wvl_nprccg'
tp17
sS'gwgamma'
p18
(S'integer'
S'gwgamma'
tp19
sS'gw_toldfeig'
p20
(S'real(dp)'
S'gw_toldfeig'
tp21
sS'nsheps'
p22
(S'integer'
S'nsheps'
tp23
sS'tolmxf'
p24
(S'real(dp)'
S'tolmxf'
tp25
sS'charge'
p26
(S'real(dp)'
S'charge'
tp27
sS'prt1dm'
p28
(S'integer'
S'prt1dm'
tp29
sS'prepanl'
p30
(S'integer'
S'prepanl'
tp31
sS'nspinor'
p32
(S'integer'
S'nspinor'
tp33
sS'ndtset'
p34
(S'integer'
S'ndtset'
tp35
sS'usepawu'
p36
(S'integer'
S'usepawu'
tp37
sS'mpw'
p38
(S'integer'
S'mpw'
tp39
sS'pawcross'
p40
(S'integer'
S'pawcross'
tp41
sS'occopt'
p42
(S'integer'
S'occopt'
tp43
sS'postoldff'
p44
(S'real(dp)'
S'postoldff'
tp45
sS'postoldfe'
p46
(S'real(dp)'
S'postoldfe'
tp47
sS'boxcenter'
p48
(S'real(dp)'
S'boxcenter(3)'
tp49
sS'bxctmindg'
p50
(S'real(dp)'
S'bxctmindg'
tp51
sS'qptdm'
p52
(S'real(dp), pointer'
S'qptdm(:,:)'
tp53
sS'spbroad'
p54
(S'real(dp)'
S'spbroad'
tp55
sS'td_mexcit'
p56
(S'integer'
S'td_mexcit'
tp57
sS'freqspmin'
p58
(S'real(dp)'
S'freqspmin'
tp59
sS'frzfermi'
p60
(S'integer'
S'frzfermi'
tp61
sS'rfphon'
p62
(S'integer'
S'rfphon'
tp63
sS'prtden'
p64
(S'integer'
S'prtden'
tp65
sS'gwpara'
p66
(S'integer'
S'gwpara'
tp67
sS'rfstrs'
p68
(S'integer'
S'rfstrs'
tp69
sS'recptrott'
p70
(S'integer'
S'recptrott'
tp71
sS'typat'
p72
(S'integer, pointer'
S'typat(:)'
tp73
sS'accesswff'
p74
(S'integer'
S'accesswff'
tp75
sS'bs_haydock_niter'
p76
(S'integer'
S'bs_haydock_niter'
tp77
sS'dmft_dc'
p78
(S'integer'
S'dmft_dc'
tp79
sS'pawprtden'
p80
(S'integer'
S'pawprtden'
tp81
sS'use_gpu_cuda'
p82
(S'integer'
S'use_gpu_cuda'
tp83
sS'algalch'
p84
(S'integer, pointer'
S'algalch(:)'
tp85
sS'prepscphon'
p86
(S'integer'
S'prepscphon'
tp87
sS'kptrlatt'
p88
(S'integer'
S'kptrlatt(3,3)'
tp89
sS'bs_algorithm'
p90
(S'integer'
S'bs_algorithm'
tp91
sS'gwmem'
p92
(S'integer'
S'gwmem'
tp93
sS'nloalg'
p94
(S'integer'
S'nloalg(5)'
tp95
sS'npkpt'
p96
(S'integer'
S'npkpt'
tp97
sS'iextrapwf'
p98
(S'integer'
S'iextrapwf'
tp99
sS'usekden'
p100
(S'integer'
S'usekden'
tp101
sS'xred_orig'
p102
(S'real(dp), pointer'
S'xred_orig(:,:,:)'
tp103
sS'kptns'
p104
(S'real(dp), pointer'
S'kptns(:,:)'
tp105
sS'nberry'
p106
(S'integer'
S'nberry'
tp107
sS'chksymbreak'
p108
(S'integer'
S'chksymbreak'
tp109
sS'freqremin'
p110
(S'real(dp)'
S'freqremin'
tp111
sS'usewvl'
p112
(S'integer'
S'usewvl'
tp113
sS'useexexch'
p114
(S'integer'
S'useexexch'
tp115
sS'exchmix'
p116
(S'real(dp)'
S'exchmix'
tp117
sS'bs_freq_mesh'
p118
(S'real(dp)'
S'bs_freq_mesh(3)'
tp119
sS'tfkinfunc'
p120
(S'integer'
S'tfkinfunc'
tp121
sS'ptcharge'
p122
(S'real(dp), pointer'
S'ptcharge(:)'
tp123
sS'kptnrm'
p124
(S'real(dp)'
S'kptnrm'
tp125
sS'irdbseig'
p126
(S'integer'
S'irdbseig'
tp127
sS'slabzbeg'
p128
(S'real(dp)'
S'slabzbeg'
tp129
sS'ionmov'
p130
(S'integer'
S'ionmov'
tp131
sS'vis'
p132
(S'real(dp)'
S'vis'
tp133
sS'cd_imfrqs'
p134
(S'real(dp), pointer'
S'cd_imfrqs(:)'
tp135
sS'userre'
p136
(S'real(dp)'
S'userre'
tp137
sS'npwwfn'
p138
(S'integer'
S'npwwfn'
tp139
sS'mffmem'
p140
(S'integer'
S'mffmem'
tp141
sS'bs_exchange_term'
p142
(S'integer'
S'bs_exchange_term'
tp143
sS'mk1mem'
p144
(S'integer'
S'mk1mem'
tp145
sS'nfreqsus'
p146
(S'integer'
S'nfreqsus'
tp147
sS'prtkpt'
p148
(S'integer'
S'prtkpt'
tp149
sS'prtcs'
p150
(S'integer'
S'prtcs'
tp151
sS'imgmov'
p152
(S'integer'
S'imgmov'
tp153
sS'qmass'
p154
(S'real(dp), pointer'
S'qmass(:)'
tp155
sS'gw_qlwl'
p156
(S'real(dp), pointer'
S'gw_qlwl(:,:)'
tp157
sS'ecutsigx'
p158
(S'real(dp)'
S'ecutsigx'
tp159
sS'ndyson'
p160
(S'integer'
S'ndyson'
tp161
sS'wvl_hgrid'
p162
(S'real(dp)'
S'wvl_hgrid'
tp163
sS'userec'
p164
(S'integer'
S'userec'
tp165
sS'spmeth'
p166
(S'integer'
S'spmeth'
tp167
sS'mkmem'
p168
(S'integer'
S'mkmem'
tp169
sS'qprtrb'
p170
(S'integer'
S'qprtrb(3)'
tp171
sS'chkgwcomp'
p172
(S'integer'
S'chkgwcomp'
tp173
sS'getden'
p174
(S'integer'
S'getden'
tp175
sS'recefermi'
p176
(S'real(dp)'
S'recefermi'
tp177
sS'prtgeo'
p178
(S'integer'
S'prtgeo'
tp179
sS'soenergy'
p180
(S'real(dp)'
S'soenergy'
tp181
sS'vacwidth'
p182
(S'real(dp)'
S'vacwidth'
tp183
sS'mixalch'
p184
(S'real(dp), pointer'
S'mixalch(:,:)'
tp185
sS'usedmatpu'
p186
(S'integer'
S'usedmatpu'
tp187
sS'td_maxene'
p188
(S'real(dp)'
S'td_maxene'
tp189
sS'paral_kgb'
p190
(S'integer'
S'paral_kgb'
tp191
sS'get1wf'
p192
(S'integer'
S'get1wf'
tp193
sS'irdden'
p194
(S'integer'
S'irdden'
tp195
sS'bs_coupling'
p196
(S'integer'
S'bs_coupling'
tp197
sS'getbseig'
p198
(S'integer'
S'getbseig'
tp199
sS'getxred'
p200
(S'integer'
S'getxred'
tp201
sS'prtnest'
p202
(S'integer'
S'prtnest'
tp203
sS'w90prtunk'
p204
(S'integer'
S'w90prtunk'
tp205
sS'ratsph'
p206
(S'real(dp), pointer'
S'ratsph(:)'
tp207
sS'intexact'
p208
(S'integer'
S'intexact'
tp209
sS'useylm'
p210
(S'integer'
S'useylm'
tp211
sS'macro_uj'
p212
(S'integer'
S'macro_uj'
tp213
sS'natom'
p214
(S'integer'
S'natom'
tp215
sS'freqsuslo'
p216
(S'real(dp)'
S'freqsuslo'
tp217
sS'npimage'
p218
(S'integer'
S'npimage'
tp219
sS'prtdensph'
p220
(S'integer'
S'prtdensph'
tp221
sS'maxnsym'
p222
(S'integer'
S'maxnsym'
tp223
sS'tolsym'
p224
(S'real(dp)'
S'tolsym'
tp225
sS'rectolden'
p226
(S'real(dp)'
S'rectolden'
tp227
sS'mqgriddg'
p228
(S'integer'
S'mqgriddg'
tp229
sS'kssform'
p230
(S'integer'
S'kssform'
tp231
sS'userrd'
p232
(S'real(dp)'
S'userrd'
tp233
sS'userra'
p234
(S'real(dp)'
S'userra'
tp235
sS'userrc'
p236
(S'real(dp)'
S'userrc'
tp237
sS'userrb'
p238
(S'real(dp)'
S'userrb'
tp239
sS'scphon_temp'
p240
(S'real(dp)'
S'scphon_temp'
tp241
sS'berrystep'
p242
(S'integer'
S'berrystep'
tp243
sS'dmft_mxsf'
p244
(S'real(dp)'
S'dmft_mxsf'
tp245
sS'wfoptalg'
p246
(S'integer'
S'wfoptalg'
tp247
sS'vcutgeo'
p248
(S'real(dp)'
S'vcutgeo(3)'
tp249
sS'rf1elfd'
p250
(S'integer'
S'rf1elfd'
tp251
sS'pawxcdev'
p252
(S'integer'
S'pawxcdev'
tp253
sS'tnons'
p254
(S'real(dp), pointer'
S'tnons(:,:)'
tp255
sS'irdwfk'
p256
(S'integer'
S'irdwfk'
tp257
sS'ird1den'
p258
(S'integer'
S'ird1den'
tp259
sS'ntimimage'
p260
(S'integer'
S'ntimimage'
tp261
sS'pawlcutd'
p262
(S'integer'
S'pawlcutd'
tp263
sS'nband'
p264
(S'integer, pointer'
S'nband(:)'
tp265
sS'prteig'
p266
(S'integer'
S'prteig'
tp267
sS'pawujv'
p268
(S'real(dp)'
S'pawujv'
tp269
sS'enunit'
p270
(S'integer'
S'enunit'
tp271
sS'vdw_nfrag'
p272
(S'integer'
S'vdw_nfrag'
tp273
sS'bmass'
p274
(S'real(dp)'
S'bmass'
tp275
sS'irdwfq'
p276
(S'integer'
S'irdwfq'
tp277
sS'pawstgylm'
p278
(S'integer'
S'pawstgylm'
tp279
sS'iprcel'
p280
(S'integer'
S'iprcel'
tp281
sS'iatfix'
p282
(S'integer, pointer'
S'iatfix(:,:)'
tp283
sS'ldgapp'
p284
(S'integer'
S'ldgapp'
tp285
sS'restartxf'
p286
(S'integer'
S'restartxf'
tp287
sS'irdddk'
p288
(S'integer'
S'irdddk'
tp289
sS'dynimage'
p290
(S'integer, pointer'
S'dynimage(:)'
tp291
sS'spgroup'
p292
(S'integer'
S'spgroup'
tp293
sS'npwsigx'
p294
(S'integer'
S'npwsigx'
tp295
sS'nomegasi'
p296
(S'integer'
S'nomegasi'
tp297
sS'nomegasf'
p298
(S'integer'
S'nomegasf'
tp299
sS'iatsph'
p300
(S'integer, pointer'
S'iatsph(:)'
tp301
sS'nline'
p302
(S'integer'
S'nline'
tp303
sS'gw_eet_nband'
p304
(S'integer'
S'gw_eet_nband'
tp305
sS'kpt'
p306
(S'real(dp), pointer'
S'kpt(:,:)'
tp307
sS'bdberry'
p308
(S'integer'
S'bdberry(4)'
tp309
sS'rfmeth'
p310
(S'integer'
S'rfmeth'
tp311
sS'useria'
p312
(S'integer'
S'useria'
tp313
sS'nfreqsp'
p314
(S'integer'
S'nfreqsp'
tp315
sS'useric'
p316
(S'integer'
S'useric'
tp317
sS'userid'
p318
(S'integer'
S'userid'
tp319
sS'userie'
p320
(S'integer'
S'userie'
tp321
sS'gw_freqsp'
p322
(S'real(dp), pointer'
S'gw_freqsp(:)'
tp323
sS'random_atpos'
p324
(S'integer'
S'random_atpos'
tp325
sS'ntypalch'
p326
(S'integer'
S'ntypalch'
tp327
sS'localrdwf'
p328
(S'integer'
S'localrdwf'
tp329
sS'prtdosm'
p330
(S'integer'
S'prtdosm'
tp331
sS'nimage'
p332
(S'integer'
S'nimage'
tp333
sS'mdtemp'
p334
(S'real(dp)'
S'mdtemp(2)'
tp335
sS'cd_halfway_freq'
p336
(S'real(dp)'
S'cd_halfway_freq'
tp337
sS'diemix'
p338
(S'real(dp)'
S'diemix'
tp339
sS'gw_npoles'
p340
(S'integer'
S'gw_npoles'
tp341
sS'posocc'
p342
(S'real(dp)'
S'posocc'
tp343
sS'irdkss'
p344
(S'integer'
S'irdkss'
tp345
sS'rectesteg'
p346
(S'integer'
S'rectesteg'
tp347
sS'ntypat'
p348
(S'integer'
S'ntypat'
tp349
sS'icoulomb'
p350
(S'integer'
S'icoulomb'
tp351
sS'corecs'
p352
(S'real(dp), pointer'
S'corecs(:)'
tp353
sS'ikhxc'
p354
(S'integer'
S'ikhxc'
tp355
sS'prtxml'
p356
(S'integer'
S'prtxml'
tp357
sS'bs_nstates'
p358
(S'integer'
S'bs_nstates'
tp359
sS'ndynimage'
p360
(S'integer'
S'ndynimage'
tp361
sS'ecutsm'
p362
(S'real(dp)'
S'ecutsm'
tp363
sS'freqremax'
p364
(S'real(dp)'
S'freqremax'
tp365
sS'nfreqim'
p366
(S'integer'
S'nfreqim'
tp367
sS'natpawu'
p368
(S'integer'
S'natpawu'
tp369
sS'dielam'
p370
(S'real(dp)'
S'dielam'
tp371
sS'efield'
p372
(S'real(dp)'
S'efield(3)'
tp373
sS'iscf'
p374
(S'integer'
S'iscf'
tp375
sS'bdeigrf'
p376
(S'integer'
S'bdeigrf'
tp377
sS'pawujat'
p378
(S'integer'
S'pawujat'
tp379
sS'upawu'
p380
(S'real(dp), pointer'
S'upawu(:)'
tp381
sS'delayperm'
p382
(S'integer'
S'delayperm'
tp383
sS'nscforder'
p384
(S'integer'
S'nscforder'
tp385
sS'pawovlp'
p386
(S'real(dp)'
S'pawovlp'
tp387
sS'atvshift'
p388
(S'real(dp), pointer'
S'atvshift(:,:,:)'
tp389
sS'prtpmp'
p390
(S'integer'
S'prtpmp'
tp391
sS'cpus'
p392
(S'real(dp)'
S'cpus'
tp393
sS'ecuteps'
p394
(S'real(dp)'
S'ecuteps'
tp395
sS'rf3elfd'
p396
(S'integer'
S'rf3elfd'
tp397
sS'suskxcrs'
p398
(S'integer'
S'suskxcrs'
tp399
sS'iprcfc'
p400
(S'integer'
S'iprcfc'
tp401
sS'usexcnhat'
p402
(S'integer'
S'usexcnhat'
tp403
sS'irdbscoup'
p404
(S'integer'
S'irdbscoup'
tp405
sS'nconeq'
p406
(S'integer'
S'nconeq'
tp407
sS'genafm'
p408
(S'real(dp)'
S'genafm(3)'
tp409
sS'npspinor'
p410
(S'integer'
S'npspinor'
tp411
sS'ngfftdg'
p412
(S'integer'
S'ngfftdg(18)'
tp413
sS'rf3atpol'
p414
(S'integer'
S'rf3atpol(2)'
tp415
sS'dmft_solv'
p416
(S'integer'
S'dmft_solv'
tp417
sS'prepgkk'
p418
(S'integer'
S'prepgkk'
tp419
sS'gw_reconst_scr'
p420
(S'integer'
S'gw_reconst_scr'
tp421
sS'rprimd_orig'
p422
(S'real(dp), pointer'
S'rprimd_orig(:,:,:)'
tp423
sS'prtvxc'
p424
(S'integer'
S'prtvxc'
tp425
sS'nfftdg'
p426
(S'integer'
S'nfftdg'
tp427
sS'paral_rf'
p428
(S'integer'
S'paral_rf'
tp429
sS'istatimg'
p430
(S'integer'
S'istatimg'
tp431
sS'vdw_typfrag'
p432
(S'integer'
S'vdw_typfrag(100)'
tp433
sS'nbdblock'
p434
(S'integer'
S'nbdblock'
tp435
sS'irdscr'
p436
(S'integer'
S'irdscr'
tp437
sS'getgam_eig2nkq'
p438
(S'integer'
S'getgam_eig2nkq'
tp439
sS'usepaw'
p440
(S'integer'
S'usepaw'
tp441
sS'use_slk'
p442
(S'integer'
S'use_slk'
tp443
sS'rcut'
p444
(S'real(dp)'
S'rcut'
tp445
sS'pawsushat'
p446
(S'integer'
S'pawsushat'
tp447
sS'diemixmag'
p448
(S'real(dp)'
S'diemixmag'
tp449
sS'cd_max_freq'
p450
(S'real(dp)'
S'cd_max_freq'
tp451
sS'cd_use_tangrid'
p452
(S'integer'
S'cd_use_tangrid'
tp453
sS'irandom'
p454
(S'integer'
S'irandom'
tp455
sS'rfuser'
p456
(S'integer'
S'rfuser'
tp457
sS'ngroup_rf'
p458
(S'integer'
S'ngroup_rf'
tp459
sS'dmatpawu'
p460
(S'real(dp), pointer'
S'dmatpawu(:,:,:,:)'
tp461
sS'prtfsurf'
p462
(S'integer'
S'prtfsurf'
tp463
sS'npband'
p464
(S'integer'
S'npband'
tp465
sS'getcell'
p466
(S'integer'
S'getcell'
tp467
sS'getbsreso'
p468
(S'integer'
S'getbsreso'
tp469
sS'prtelf'
p470
(S'integer'
S'prtelf'
tp471
sS'rfasr'
p472
(S'integer'
S'rfasr'
tp473
sS'jdtset'
p474
(S'integer'
S'jdtset'
tp475
sS'dtion'
p476
(S'real(dp)'
S'dtion'
tp477
sS'prtkden'
p478
(S'integer'
S'prtkden'
tp479
sS'rfelfd'
p480
(S'integer'
S'rfelfd'
tp481
sS'prtvhxc'
p482
(S'integer'
S'prtvhxc'
tp483
sS'mgfft'
p484
(S'integer'
S'mgfft'
tp485
sS'dmatudiag'
p486
(S'integer'
S'dmatudiag'
tp487
sS'nbandsus'
p488
(S'integer'
S'nbandsus'
tp489
sS'recgratio'
p490
(S'integer'
S'recgratio'
tp491
sS'iprctfvw'
p492
(S'integer'
S'iprctfvw'
tp493
sS'dielng'
p494
(S'real(dp)'
S'dielng'
tp495
sS'nshwfn'
p496
(S'integer'
S'nshwfn'
tp497
sS'mdwall'
p498
(S'real(dp)'
S'mdwall'
tp499
sS'rf1dir'
p500
(S'integer'
S'rf1dir(3)'
tp501
sS'sciss'
p502
(S'real(dp)'
S'sciss'
tp503
sS'freqsusin'
p504
(S'real(dp)'
S'freqsusin'
tp505
sS'rfatpol'
p506
(S'integer'
S'rfatpol(2)'
tp507
sS'npwkss'
p508
(S'integer'
S'npwkss'
tp509
sS'friction'
p510
(S'real(dp)'
S'friction'
tp511
sS'gw_nqlwl'
p512
(S'integer'
S'gw_nqlwl'
tp513
sS'prtcml'
p514
(S'integer'
S'prtcml'
tp515
sS'gwcalctyp'
p516
(S'integer'
S'gwcalctyp'
tp517
sS'bs_hayd_term'
p518
(S'integer'
S'bs_hayd_term'
tp519
sS'irdsuscep'
p520
(S'integer'
S'irdsuscep'
tp521
sS'zeemanfield'
p522
(S'real(dp)'
S'zeemanfield(3)'
tp523
sS'chkprim'
p524
(S'integer'
S'chkprim'
tp525
sS'rf1atpol'
p526
(S'integer'
S'rf1atpol(2)'
tp527
sS'dosdeltae'
p528
(S'real(dp)'
S'dosdeltae'
tp529
sS'prtefg'
p530
(S'integer'
S'prtefg'
tp531
sS'kptrlen'
p532
(S'real(dp)'
S'kptrlen'
tp533
sS'kptgw'
p534
(S'real(dp), pointer'
S'kptgw(:,:)'
tp535
sS'zcut'
p536
(S'real(dp)'
S'zcut'
tp537
sS'getvel'
p538
(S'integer'
S'getvel'
tp539
sS'optnlxccc'
p540
(S'integer'
S'optnlxccc'
tp541
sS'bdgw'
p542
(S'integer, pointer'
S'bdgw(:,:,:)'
tp543
sS'getpawden'
p544
(S'integer'
S'getpawden'
tp545
sS'esmear'
p546
(S'real(dp)'
S'esmear'
tp547
sS'dmftcheck'
p548
(S'integer'
S'dmftcheck'
tp549
sS'prtwf'
p550
(S'integer'
S'prtwf'
tp551
sS'wtatcon'
p552
(S'real(dp), pointer'
S'wtatcon(:,:,:)'
tp553
sS'occ_orig'
p554
(S'real(dp), pointer'
S'occ_orig(:)'
tp555
sS'gwcomp'
p556
(S'integer'
S'gwcomp'
tp557
sS'wvl_crmult'
p558
(S'real(dp)'
S'wvl_crmult'
tp559
sS'gethaydock'
p560
(S'integer'
S'gethaydock'
tp561
sS'inclvkb'
p562
(S'integer'
S'inclvkb'
tp563
sS'gw_nstep'
p564
(S'integer'
S'gw_nstep'
tp565
sS'rf1phon'
p566
(S'integer'
S'rf1phon'
tp567
sS'tl_nprccg'
p568
(S'integer'
S'tl_nprccg'
tp569
sS'bfield'
p570
(S'real(dp)'
S'bfield(3)'
tp571
sS'pawprtwf'
p572
(S'integer'
S'pawprtwf'
tp573
sS'strfact'
p574
(S'real(dp)'
S'strfact'
tp575
sS'ird1wf'
p576
(S'integer'
S'ird1wf'
tp577
sS'rf2phon'
p578
(S'integer'
S'rf2phon'
tp579
sS'nelect'
p580
(S'real(dp)'
S'nelect'
tp581
sS'positron'
p582
(S'integer'
S'positron'
tp583
sS'nshsigx'
p584
(S'integer'
S'nshsigx'
tp585
sS'scphon_supercell'
p586
(S'integer'
S'scphon_supercell(3)'
tp587
sS'jpawu'
p588
(S'real(dp), pointer'
S'jpawu(:)'
tp589
sS'nqpt'
p590
(S'integer'
S'nqpt'
tp591
sS'pawlmix'
p592
(S'integer'
S'pawlmix'
tp593
sS'prtlden'
p594
(S'integer'
S'prtlden'
tp595
sS'optstress'
p596
(S'integer'
S'optstress'
tp597
sS'rfddk'
p598
(S'integer'
S'rfddk'
tp599
sS'effmass'
p600
(S'real(dp)'
S'effmass'
tp601
sS'prtatlist'
p602
(S'integer, pointer'
S'prtatlist(:)'
tp603
sS'smdelta'
p604
(S'integer'
S'smdelta'
tp605
sS'pawujrad'
p606
(S'real(dp)'
S'pawujrad'
tp607
sS'bandpp'
p608
(S'integer'
S'bandpp'
tp609
sS'getwfk'
p610
(S'integer'
S'getwfk'
tp611
sS'fixmom'
p612
(S'real(dp)'
S'fixmom'
tp613
sS'diismemory'
p614
(S'integer'
S'diismemory'
tp615
sS'getwfq'
p616
(S'integer'
S'getwfq'
tp617
sS'fband'
p618
(S'real(dp)'
S'fband'
tp619
sS'nbandkss'
p620
(S'integer'
S'nbandkss'
tp621
sS'freqspmax'
p622
(S'real(dp)'
S'freqspmax'
tp623
sS'gw_sigxcore'
p624
(S'integer'
S'gw_sigxcore'
tp625
sS'pitransform'
p626
(S'integer'
S'pitransform'
tp627
sS'diegap'
p628
(S'real(dp)'
S'diegap'
tp629
sS'ziontypat'
p630
(S'real(dp), pointer'
S'ziontypat(:)'
tp631
sS'pawmixdg'
p632
(S'integer'
S'pawmixdg'
tp633
sS'strprecon'
p634
(S'real(dp)'
S'strprecon'
tp635
sS'prtdipole'
p636
(S'integer'
S'prtdipole'
tp637
sS'istatshft'
p638
(S'integer'
S'istatshft'
tp639
sS'npweps'
p640
(S'integer'
S'npweps'
tp641
sS'rf3dir'
p642
(S'integer'
S'rf3dir(3)'
tp643
sS'spnorbscl'
p644
(S'real(dp)'
S'spnorbscl'
tp645
sS'wtk'
p646
(S'real(dp), pointer'
S'wtk(:)'
tp647
sS'omegasimax'
p648
(S'real(dp)'
S'omegasimax'
tp649
sS'ecutwfn'
p650
(S'real(dp)'
S'ecutwfn'
tp651
sS'awtr'
p652
(S'integer'
S'awtr'
tp653
sS'nkptgw'
p654
(S'integer'
S'nkptgw'
tp655
sS'npulayit'
p656
(S'integer'
S'npulayit'
tp657
sS'dmft_nwli'
p658
(S'integer'
S'dmft_nwli'
tp659
sS'rdmnb'
p660
(S'integer'
S'rdmnb'
tp661
sS'rf3phon'
p662
(S'integer'
S'rf3phon'
tp663
sS'nnos'
p664
(S'integer'
S'nnos'
tp665
sS'gwrpacorr'
p666
(S'integer'
S'gwrpacorr'
tp667
sS'dilatmx'
p668
(S'real(dp)'
S'dilatmx'
tp669
sS'dmatpuopt'
p670
(S'integer'
S'dmatpuopt'
tp671
sS'pawecutdg'
p672
(S'real(dp)'
S'pawecutdg'
tp673
sS'tolimg'
p674
(S'real(dp)'
S'tolimg'
tp675
sS'prtstm'
p676
(S'integer'
S'prtstm'
tp677
sS'vdw_supercell'
p678
(S'integer'
S'vdw_supercell(3)'
tp679
sS'acell_orig'
p680
(S'real(dp), pointer'
S'acell_orig(:,:)'
tp681
sS'diemac'
p682
(S'real(dp)'
S'diemac'
tp683
sS'signperm'
p684
(S'integer'
S'signperm'
tp685
sS'rf2dir'
p686
(S'integer'
S'rf2dir(3)'
tp687
sS'prtgden'
p688
(S'integer'
S'prtgden'
tp689
sS'gw_custom_freqsp'
p690
(S'integer'
S'gw_custom_freqsp'
tp691
sS'prtfc'
p692
(S'integer'
S'prtfc'
tp693
sS'berryopt'
p694
(S'integer'
S'berryopt'
tp695
sS'ixcpositron'
p696
(S'integer'
S'ixcpositron'
tp697
sS'getqps'
p698
(S'integer'
S'getqps'
tp699
sS'timopt'
p700
(S'integer'
S'timopt'
tp701
sS'rfdir'
p702
(S'integer'
S'rfdir(3)'
tp703
sS'shiftk'
p704
(S'real(dp), pointer'
S'shiftk(:,:)'
tp705
sS'cd_custom_imfrqs'
p706
(S'integer'
S'cd_custom_imfrqs'
tp707
sS'kberry'
p708
(S'integer, pointer'
S'kberry(:,:)'
tp709
sS'bs_loband'
p710
(S'integer'
S'bs_loband'
tp711
sS'mgfftdg'
p712
(S'integer'
S'mgfftdg'
tp713
sS'getocc'
p714
(S'integer'
S'getocc'
tp715
sS'prtposcar'
p716
(S'integer'
S'prtposcar'
tp717
sS'eshift'
p718
(S'real(dp)'
S'eshift'
tp719
sS'iboxcut'
p720
(S'integer'
S'iboxcut'
tp721
sS'pawntheta'
p722
(S'integer'
S'pawntheta'
tp723
sS'usedmft'
p724
(S'integer'
S'usedmft'
tp725
sS'nshiftk'
p726
(S'integer'
S'nshiftk'
tp727
sS'nsym'
p728
(S'integer'
S'nsym'
tp729
sS'prtcif'
p730
(S'integer'
S'prtcif'
tp731
sS'omegasrdmax'
p732
(S'real(dp)'
S'omegasrdmax'
tp733
sS'xc_denpos'
p734
(S'real(dp)'
S'xc_denpos'
tp735
sS'noseinert'
p736
(S'real(dp)'
S'noseinert'
tp737
sS'intxc'
p738
(S'integer'
S'intxc'
tp739
sS'symmorphi'
p740
(S'integer'
S'symmorphi'
tp741
sS'spgaxor'
p742
(S'integer'
S'spgaxor'
tp743
sS'get1den'
p744
(S'integer'
S'get1den'
tp745
sS'gw_eet'
p746
(S'integer'
S'gw_eet'
tp747
sS'pawspnorb'
p748
(S'integer'
S'pawspnorb'
tp749
sS'dmftbandi'
p750
(S'integer'
S'dmftbandi'
tp751
sS'irdqps'
p752
(S'integer'
S'irdqps'
tp753
sS'vel_orig'
p754
(S'real(dp), pointer'
S'vel_orig(:,:,:)'
tp755
sS'dmftbandf'
p756
(S'integer'
S'dmftbandf'
tp757
sS'diecut'
p758
(S'real(dp)'
S'diecut'
tp759
sS'gw_use_pole_scr'
p760
(S'integer'
S'gw_use_pole_scr'
tp761
sS'jellslab'
p762
(S'integer'
S'jellslab'
tp763
sS'ppmodel'
p764
(S'integer'
S'ppmodel'
tp765
sS'pawoptmix'
p766
(S'integer'
S'pawoptmix'
tp767
sS'optcell'
p768
(S'integer'
S'optcell'
tp769
sS'pawprtdos'
p770
(S'integer'
S'pawprtdos'
tp771
sS'cd_subset_freq'
p772
(S'integer'
S'cd_subset_freq(2)'
tp773
sS'tolwfr'
p774
(S'real(dp)'
S'tolwfr'
tp775
sS'pawfatbnd'
p776
(S'integer'
S'pawfatbnd'
tp777
sS'prtvolimg'
p778
(S'integer'
S'prtvolimg'
tp779
sS'natvshift'
p780
(S'integer'
S'natvshift'
tp781
sS'gw_sctype'
p782
(S'integer'
S'gw_sctype'
tp783
sS'strtarget'
p784
(S'real(dp)'
S'strtarget(6)'
tp785
sS'kptopt'
p786
(S'integer'
S'kptopt'
tp787
sS'w90iniprj'
p788
(S'integer'
S'w90iniprj'
tp789
sS'nsppol'
p790
(S'integer'
S'nsppol'
tp791
sS'mqgrid'
p792
(S'integer'
S'mqgrid'
tp793
sS'supercell'
p794
(S'integer'
S'supercell(3)'
tp795
sS'bs_coulomb_term'
p796
(S'integer'
S'bs_coulomb_term'
tp797
sS'amu'
p798
(S'real(dp), pointer'
S'amu(:)'
tp799
sS'ptgroupma'
p800
(S'integer'
S'ptgroupma'
tp801
sS'pawnhatxc'
p802
(S'integer'
S'pawnhatxc'
tp803
sS'tphysel'
p804
(S'real(dp)'
S'tphysel'
tp805
sS'symrel'
p806
(S'integer, pointer'
S'symrel(:,:,:)'
tp807
sS'pawcpxocc'
p808
(S'integer'
S'pawcpxocc'
tp809
sS'wvl_frmult'
p810
(S'real(dp)'
S'wvl_frmult'
tp811
sS'pawusecp'
p812
(S'integer'
S'pawusecp'
tp813
sS'userib'
p814
(S'integer'
S'userib'
tp815
sS'idyson'
p816
(S'integer'
S'idyson'
tp817
sS'so_psp'
p818
(S'integer, pointer'
S'so_psp(:)'
tp819
sS'prtpot'
p820
(S'integer'
S'prtpot'
tp821
sS'istwfk'
p822
(S'integer, pointer'
S'istwfk(:)'
tp823
sS'optforces'
p824
(S'integer'
S'optforces'
tp825
sS'tolrff'
p826
(S'real(dp)'
S'tolrff'
tp827
sS'brvltt'
p828
(S'integer'
S'brvltt'
tp829
sS'boxcutmin'
p830
(S'real(dp)'
S'boxcutmin'
tp831
sS'ntime'
p832
(S'integer'
S'ntime'
tp833
sS'prtvha'
p834
(S'integer'
S'prtvha'
tp835
sS'npsp'
p836
(S'integer'
S'npsp'
tp837
sS'ppmfrq'
p838
(S'real(dp)'
S'ppmfrq'
tp839
sS'goprecprm'
p840
(S'real(dp)'
S'goprecprm(3)'
tp841
sS'prtvol'
p842
(S'integer'
S'prtvol'
tp843
sS'nqptdm'
p844
(S'integer'
S'nqptdm'
tp845
sS'iprcch'
p846
(S'integer'
S'iprcch'
tp847
sS'prtbltztrp'
p848
(S'integer'
S'prtbltztrp'
tp849
sS'isecur'
p850
(S'integer'
S'isecur'
tp851
sS'rhoqpmix'
p852
(S'real(dp)'
S'rhoqpmix'
tp853
sS'natsph'
p854
(S'integer'
S'natsph'
tp855
sS'slabzend'
p856
(S'real(dp)'
S'slabzend'
tp857
sS'getddk'
p858
(S'integer'
S'getddk'
tp859
sS'nwfshist'
p860
(S'integer'
S'nwfshist'
tp861
sS'nctime'
p862
(S'integer'
S'nctime'
tp863
sS'ecut'
p864
(S'real(dp)'
S'ecut'
tp865
sS'pawprt_k'
p866
(S'integer'
S'pawprt_k'
tp867
sS'nkpt'
p868
(S'integer'
S'nkpt'
tp869
sS'symafm'
p870
(S'integer, pointer'
S'symafm(:)'
tp871
sS'pawprt_b'
p872
(S'integer'
S'pawprt_b'
tp873
sS'getxcart'
p874
(S'integer'
S'getxcart'
tp875
sS'rprim_orig'
p876
(S'real(dp), pointer'
S'rprim_orig(:,:,:)'
tp877
sS'vdw_xc'
p878
(S'integer'
S'vdw_xc'
tp879
sS'ieig2rf'
p880
(S'integer'
S'ieig2rf'
tp881
sS'rf2atpol'
p882
(S'integer'
S'rf2atpol(2)'
tp883
sS'gw_eet_inclvkb'
p884
(S'integer'
S'gw_eet_inclvkb'
tp885
sS'bs_eh_cutoff'
p886
(S'real(dp)'
S'bs_eh_cutoff(3)'
tp887
sS'gw_eet_scale'
p888
(S'real(dp)'
S'gw_eet_scale'
tp889
sS'getsuscep'
p890
(S'integer'
S'getsuscep'
tp891
sS'icutcoul'
p892
(S'integer'
S'icutcoul'
tp893
sS'prtspcur'
p894
(S'integer'
S'prtspcur'
tp895
sS'dmft_rslf'
p896
(S'integer'
S'dmft_rslf'
tp897
sS'prtdos'
p898
(S'integer'
S'prtdos'
tp899
sS'spgorig'
p900
(S'integer'
S'spgorig'
tp901
sS'recrcut'
p902
(S'real(dp)'
S'recrcut'
tp903
sS'nfft'
p904
(S'integer'
S'nfft'
tp905
sS'nspden'
p906
(S'integer'
S'nspden'
tp907
sS'spinat'
p908
(S'real(dp), pointer'
S'spinat(:,:)'
tp909
sS'fermie_nest'
p910
(S'real(dp)'
S'fermie_nest'
tp911
sS'bs_haydock_tol'
p912
(S'real(dp)'
S'bs_haydock_tol(2)'
tp913
sS'prtnabla'
p914
(S'integer'
S'prtnabla'
tp915
sS'znucl'
p916
(S'real(dp), pointer'
S'znucl(:)'
tp917
sS'pawnzlm'
p918
(S'integer'
S'pawnzlm'
tp919
sS'nbdbuf'
p920
(S'integer'
S'nbdbuf'
tp921
sS'dmft_nwlo'
p922
(S'integer'
S'dmft_nwlo'
tp923
sS'ixc'
p924
(S'integer'
S'ixc'
tp925
sS'prtwant'
p926
(S'integer'
S'prtwant'
tp927
sS'mband'
p928
(S'integer'
S'mband'
tp929
sS'getscr'
p930
(S'integer'
S'getscr'
tp931
sS'optdriver'
p932
(S'integer'
S'optdriver'
tp933
sS'prtbbb'
p934
(S'integer'
S'prtbbb'
tp935
sS'lexexch'
p936
(S'integer, pointer'
S'lexexch(:)'
tp937
sS'fftgw'
p938
(S'integer'
S'fftgw'
tp939
sS'goprecon'
p940
(S'integer'
S'goprecon'
tp941
sS'prtgkk'
p942
(S'integer'
S'prtgkk'
tp943
sS'quadmom'
p944
(S'real(dp), pointer'
S'quadmom(:)'
tp945
sS'ortalg'
p946
(S'integer'
S'ortalg'
tp947
sS'pawprtvol'
p948
(S'integer'
S'pawprtvol'
tp949
sS'tolvrs'
p950
(S'real(dp)'
S'tolvrs'
tp951
sS'pawnphi'
p952
(S'integer'
S'pawnphi'
tp953
sS'recnrec'
p954
(S'integer'
S'recnrec'
tp955
sS'tsmear'
p956
(S'real(dp)'
S'tsmear'
tp957
sS'tl_radius'
p958
(S'real(dp)'
S'tl_radius'
tp959
sS'cd_full_grid'
p960
(S'integer'
S'cd_full_grid'
tp961
sS'bs_calctype'
p962
(S'integer'
S'bs_calctype'
tp963
sS'posnstep'
p964
(S'integer'
S'posnstep'
tp965
sS'qptn'
p966
(S'real(dp)'
S'qptn(3)'
tp967
sS'irdhaydock'
p968
(S'integer'
S'irdhaydock'
tp969
sS'fxcartfactor'
p970
(S'real(dp)'
S'fxcartfactor'
tp971
sS'recnpath'
p972
(S'integer'
S'recnpath'
tp973
sS'elph2_imagden'
p974
(S'real(dp)'
S'elph2_imagden'
tp975
sS'nomegasrd'
p976
(S'integer'
S'nomegasrd'
tp977
sS'istatr'
p978
(S'integer'
S'istatr'
tp979
sS'natrd'
p980
(S'integer'
S'natrd'
tp981
sS'getkss'
p982
(S'integer'
S'getkss'
tp983
sS'nnsclo'
p984
(S'integer'
S'nnsclo'
tp985
sS'lpawu'
p986
(S'integer, pointer'
S'lpawu(:)'
tp987
sS'xclevel'
p988
(S'integer'
S'xclevel'
tp989
sS'ntyppure'
p990
(S'integer'
S'ntyppure'
tp991
sS'nfreqre'
p992
(S'integer'
S'nfreqre'
tp993
sS'npfft'
p994
(S'integer'
S'npfft'
tp995
sS'symsigma'
p996
(S'integer'
S'symsigma'
tp997
sS'getbscoup'
p998
(S'integer'
S'getbscoup'
tp999
sS'pimass'
p1000
(S'real(dp), pointer'
S'pimass(:)'
tp1001
sS'dmft_iter'
p1002
(S'integer'
S'dmft_iter'
tp1003
sS'optfreqsus'
p1004
(S'integer'
S'optfreqsus'
tp1005
sS'npspalch'
p1006
(S'integer'
S'npspalch'
tp1007
sS'chkexit'
p1008
(S'integer'
S'chkexit'
tp1009
sS'vacnum'
p1010
(S'integer'
S'vacnum'
tp1011
sS'gwencomp'
p1012
(S'real(dp)'
S'gwencomp'
tp1013
sS'toldfe'
p1014
(S'real(dp)'
S'toldfe'
tp1015
sS'irdpawden'
p1016
(S'integer'
S'irdpawden'
tp1017
sS'vprtrb'
p1018
(S'real(dp)'
S'vprtrb(2)'
tp1019
sS'fft_opt_lob'
p1020
(S'integer'
S'fft_opt_lob'
tp1021
sS'mkqmem'
p1022
(S'integer'
S'mkqmem'
tp1023
sS'stmbias'
p1024
(S'real(dp)'
S'stmbias'
tp1025
sS'rf2elfd'
p1026
(S'integer'
S'rf2elfd'
tp1027
sS'ngfft'
p1028
(S'integer'
S'ngfft(18)'
tp1029
s.